target datalayout = "e-m:e-p270:32:32-p271:32:32-p272:64:64-i64:64-i128:128-f80:128-n8:16:32:64-S128"
target triple = "x86_64-pc-linux-gnu"

%struct._lv_cache_ops_t = type { ptr, ptr, ptr }
%struct._lv_cache_t = type { ptr, i32, i32, i32, %struct._lv_cache_ops_t, i32, ptr }

; Function Attrs: nounwind uwtable
define void @lv_cache_release(ptr noundef %0, ptr noundef %1, ptr noundef %2) #0 {
  %4 = alloca ptr, align 8
  %5 = alloca ptr, align 8
  %6 = alloca ptr, align 8
  store ptr %0, ptr %4, align 8, !tbaa !3
  store ptr %1, ptr %5, align 8, !tbaa !3
  store ptr %2, ptr %6, align 8, !tbaa !3
  br label %7

7:                                                ; preds = %3
  %8 = load ptr, ptr %5, align 8, !tbaa !3
  %9 = icmp ne ptr %8, null
  br i1 %9, label %14, label %10

10:                                               ; preds = %7
  br label %11

11:                                               ; preds = %10
  br label %12

12:                                               ; preds = %11
  br label %13

13:                                               ; preds = %12, %13
  br label %13

14:                                               ; preds = %7
  br label %15

15:                                               ; preds = %14
  %16 = load ptr, ptr %4, align 8, !tbaa !3
  %17 = getelementptr inbounds nuw %struct._lv_cache_t, ptr %16, i32 0, i32 5
  %18 = call i32 @lv_mutex_lock(ptr noundef %17)
  %19 = load ptr, ptr %5, align 8, !tbaa !3
  %20 = load ptr, ptr %6, align 8, !tbaa !3
  call void @lv_cache_entry_release_data(ptr noundef %19, ptr noundef %20)
  %21 = load ptr, ptr %5, align 8, !tbaa !3
  %22 = call i32 @lv_cache_entry_get_ref(ptr noundef %21)
  %23 = icmp eq i32 %22, 0
  br i1 %23, label %24, label %36

24:                                               ; preds = %15
  %25 = load ptr, ptr %5, align 8, !tbaa !3
  %26 = call zeroext i1 @lv_cache_entry_is_invalid(ptr noundef %25)
  br i1 %26, label %27, label %36

27:                                               ; preds = %24
  %28 = load ptr, ptr %4, align 8, !tbaa !3
  %29 = getelementptr inbounds nuw %struct._lv_cache_t, ptr %28, i32 0, i32 4
  %30 = getelementptr inbounds nuw %struct._lv_cache_ops_t, ptr %29, i32 0, i32 2
  %31 = load ptr, ptr %30, align 8, !tbaa !22
  %32 = load ptr, ptr %5, align 8, !tbaa !3
  %33 = call ptr @lv_cache_entry_get_data(ptr noundef %32)
  %34 = load ptr, ptr %6, align 8, !tbaa !3
  call void %31(ptr noundef %33, ptr noundef %34)
  %35 = load ptr, ptr %5, align 8, !tbaa !3
  call void @lv_cache_entry_delete(ptr noundef %35)
  br label %36

36:                                               ; preds = %27, %24, %15
  %37 = load ptr, ptr %4, align 8, !tbaa !3
  %38 = getelementptr inbounds nuw %struct._lv_cache_t, ptr %37, i32 0, i32 5
  %39 = call i32 @lv_mutex_unlock(ptr noundef %38)
  ret void
}