; Function Attrs: nounwind uwtable
define void @lv_cache_release(ptr noundef %0, ptr noundef %1, ptr noundef %2) local_unnamed_addr #0 {
  %.not = icmp eq ptr %1, null
  br i1 %.not, label %.preheader, label %4

.preheader:                                       ; preds = %3, %.preheader
  br label %.preheader

4:                                                ; preds = %3
  %5 = getelementptr inbounds nuw i8, ptr %0, i64 48
  %6 = tail call i32 @lv_mutex_lock(ptr noundef nonnull %5) #5
  tail call void @lv_cache_entry_release_data(ptr noundef nonnull %1, ptr noundef %2) #5
  %7 = tail call i32 @lv_cache_entry_get_ref(ptr noundef nonnull %1) #5
  %8 = icmp eq i32 %7, 0
  br i1 %8, label %9, label %15

9:                                                ; preds = %4
  %10 = tail call zeroext i1 @lv_cache_entry_is_invalid(ptr noundef nonnull %1) #5
  br i1 %10, label %11, label %15

11:                                               ; preds = %9
  %12 = getelementptr inbounds nuw i8, ptr %0, i64 40
  %13 = load ptr, ptr %12, align 8, !tbaa !20
  %14 = tail call ptr @lv_cache_entry_get_data(ptr noundef nonnull %1) #5
  tail call void %13(ptr noundef %14, ptr noundef %2) #5
  tail call void @lv_cache_entry_delete(ptr noundef nonnull %1) #5
  br label %15

15:                                               ; preds = %11, %9, %4
  %16 = tail call i32 @lv_mutex_unlock(ptr noundef nonnull %5) #5
  ret void
}